; Function Attrs: nounwind uwtable
define dso_local range(i64 0, 2) i64 @has_tablespace_privilege_name(ptr noundef readonly captures(none) %0) local_unnamed_addr #0 {
  %2 = getelementptr inbounds nuw i8, ptr %0, i64 32
  %3 = load i64, ptr %2, align 8
  %4 = inttoptr i64 %3 to ptr
  %5 = tail call ptr @pg_detoast_datum_packed(ptr noundef %4) #14
  %6 = getelementptr inbounds nuw i8, ptr %0, i64 48
  %7 = load i64, ptr %6, align 8
  %8 = inttoptr i64 %7 to ptr
  %9 = tail call ptr @pg_detoast_datum_packed(ptr noundef %8) #14
  %10 = tail call i32 @GetUserId() #14
  %11 = tail call ptr @text_to_cstring(ptr noundef %5) #14
  %12 = tail call i32 @get_tablespace_oid(ptr noundef %11, i1 noundef zeroext false) #14
  %13 = tail call fastcc i64 @convert_any_priv_string(ptr noundef %9, ptr noundef nonnull @convert_tablespace_priv_string.tablespace_priv_map)
  %14 = tail call i32 @object_aclcheck(i32 noundef 1213, i32 noundef %12, i32 noundef %10, i64 noundef %13) #14
  %15 = icmp eq i32 %14, 0
  %16 = zext i1 %15 to i64
  ret i64 %16
}